; Function Attrs: nofree norecurse nosync nounwind memory(readwrite, inaccessiblemem: none) uwtable
define range(i32 1, 1000000001) i32 @Sle_ManComputeDelayOne(ptr noundef readnone captures(none) %0, i32 noundef %1, ptr noundef readonly captures(none) %2, ptr noundef readonly captures(none) %3) local_unnamed_addr #4 {
  %5 = getelementptr i8, ptr %2, i64 8
  %.val = load ptr, ptr %5, align 8, !tbaa !28
  %6 = sext i32 %1 to i64
  %7 = getelementptr inbounds i32, ptr %.val, i64 %6
  %8 = load i32, ptr %7, align 4, !tbaa !29
  %9 = sext i32 %8 to i64
  %10 = getelementptr inbounds i32, ptr %.val, i64 %9
  %11 = load i32, ptr %10, align 4, !tbaa !29
  %12 = icmp sgt i32 %11, 0
  br i1 %12, label %.lr.ph, label %._crit_edge

.lr.ph:                                           ; preds = %4
  %13 = getelementptr i8, ptr %3, i64 8
  br label %14

14:                                               ; preds = %.lr.ph, %Sle_ManComputeDelayCut.exit
  %.023 = phi i32 [ 0, %.lr.ph ], [ %26, %Sle_ManComputeDelayCut.exit ]
  %.01722 = phi i32 [ 1000000000, %.lr.ph ], [ %25, %Sle_ManComputeDelayCut.exit ]
  %.pn21 = phi ptr [ %10, %.lr.ph ], [ %27, %Sle_ManComputeDelayCut.exit ]
  %.018 = getelementptr inbounds nuw i8, ptr %.pn21, i64 4
  %.val10.i = load i32, ptr %.018, align 4, !tbaa !29
  %15 = and i32 %.val10.i, 15
  %16 = getelementptr inbounds nuw i8, ptr %.pn21, i64 8
  %.not.i = icmp eq i32 %15, 0
  br i1 %.not.i, label %Sle_ManComputeDelayCut.exit, label %.lr.ph.i

.lr.ph.i:                                         ; preds = %14
  %.val.i = load ptr, ptr %13, align 8, !tbaa !28
  %wide.trip.count.i = zext nneg i32 %15 to i64
  br label %17

17:                                               ; preds = %17, %.lr.ph.i
  %indvars.iv.i = phi i64 [ 0, %.lr.ph.i ], [ %indvars.iv.next.i, %17 ]
  %.012.i = phi i32 [ 0, %.lr.ph.i ], [ %23, %17 ]
  %18 = getelementptr inbounds nuw i32, ptr %16, i64 %indvars.iv.i
  %19 = load i32, ptr %18, align 4, !tbaa !29
  %20 = sext i32 %19 to i64
  %21 = getelementptr inbounds i32, ptr %.val.i, i64 %20
  %22 = load i32, ptr %21, align 4, !tbaa !29
  %23 = tail call noundef i32 @llvm.smax.i32(i32 %.012.i, i32 %22)
  %indvars.iv.next.i = add nuw nsw i64 %indvars.iv.i, 1
  %exitcond.not.i = icmp eq i64 %indvars.iv.next.i, %wide.trip.count.i
  br i1 %exitcond.not.i, label %._crit_edge.loopexit.i, label %17, !llvm.loop !49

._crit_edge.loopexit.i:                           ; preds = %17
  %24 = add nuw nsw i32 %23, 1
  br label %Sle_ManComputeDelayCut.exit

Sle_ManComputeDelayCut.exit:                      ; preds = %14, %._crit_edge.loopexit.i
  %.pre-phi = phi i64 [ %wide.trip.count.i, %._crit_edge.loopexit.i ], [ 0, %14 ]
  %.0.lcssa.i = phi i32 [ %24, %._crit_edge.loopexit.i ], [ 1, %14 ]
  %25 = tail call noundef i32 @llvm.smin.i32(i32 %.01722, i32 range(i32 -2147483647, -2147483648) %.0.lcssa.i)
  %26 = add nuw nsw i32 %.023, 1
  %27 = getelementptr inbounds nuw i32, ptr %.018, i64 %.pre-phi
  %exitcond.not = icmp eq i32 %26, %11
  br i1 %exitcond.not, label %._crit_edge, label %14, !llvm.loop !50

._crit_edge:                                      ; preds = %Sle_ManComputeDelayCut.exit, %4
  %.017.lcssa = phi i32 [ 1000000000, %4 ], [ %25, %Sle_ManComputeDelayCut.exit ]
  %28 = getelementptr i8, ptr %3, i64 8
  %.val20 = load ptr, ptr %28, align 8, !tbaa !28
  %29 = getelementptr inbounds i32, ptr %.val20, i64 %6
  store i32 %.017.lcssa, ptr %29, align 4, !tbaa !29
  ret i32 %.017.lcssa
}